target datalayout = "e-m:e-p270:32:32-p271:32:32-p272:64:64-i64:64-i128:128-f80:128-n8:16:32:64-S128"
target triple = "x86_64-pc-linux-gnu"

%struct.Pdr_Set_t_ = type { i64, i32, i32, i32, [0 x i32] }
%struct.sat_solver_t = type { i32, i32, i32, i32, %struct.Sat_Mem_t_, i32, i32, ptr, ptr, i32, i32, i32, i32, i32, i64, i64, i64, ptr, ptr, i32, i32, %struct.veci_t, ptr, i32, ptr, ptr, ptr, ptr, ptr, ptr, ptr, ptr, %struct.veci_t, %struct.veci_t, %struct.veci_t, %struct.veci_t, ptr, %struct.veci_t, i32, i32, i32, double, double, i32, i32, i32, %struct.stats_t, i32, i32, i32, i32, i32, i64, i64, i64, %struct.veci_t, ptr, i32, i32, i32, %struct.veci_t, %struct.veci_t, i32, i32, i32, ptr, ptr, i32, ptr, i32, i32, %struct.veci_t, %struct.veci_t, %struct.veci_t, ptr, ptr, i32, ptr }
%struct.Sat_Mem_t_ = type { [2 x i32], [2 x i32], [2 x i32], [2 x i32], i32, i32, i32, i32, ptr }
%struct.stats_t = type { i32, i32, i32, i64, i64, i64, i64, i64, i64, i64 }
%struct.veci_t = type { i32, i32, ptr }
%struct.Pdr_Man_t_ = type { ptr, ptr, ptr, ptr, ptr, ptr, ptr, ptr, %struct.Vec_Ptr_t_, ptr, i32, i32, ptr, ptr, ptr, ptr, ptr, ptr, i32, i32, ptr, ptr, ptr, i32, i32, ptr, ptr, ptr, ptr, ptr, ptr, ptr, ptr, ptr, ptr, ptr, ptr, ptr, ptr, i32, i32, i32, i32, i32, i32, i32, i32, i32, i32, i32, i32, i32, i32, i32, i32, i32, i64, i64, i64, i64, i64, i64, i64, i64, i64, i64, i64, i64 }
%struct.Vec_Ptr_t_ = type { i32, i32, ptr }
%struct.Vec_Int_t_ = type { i32, i32, ptr }

; Function Attrs: inlinehint nounwind uwtable
define internal void @Vec_IntGrow(ptr noundef %0, i32 noundef %1) #1 {
  %3 = alloca ptr, align 8
  %4 = alloca i32, align 4
  store ptr %0, ptr %3, align 8, !tbaa !49
  store i32 %1, ptr %4, align 4, !tbaa !3
  %5 = load ptr, ptr %3, align 8, !tbaa !49
  %6 = getelementptr inbounds nuw %struct.Vec_Int_t_, ptr %5, i32 0, i32 0
  %7 = load i32, ptr %6, align 8, !tbaa !86
  %8 = load i32, ptr %4, align 4, !tbaa !3
  %9 = icmp sge i32 %7, %8
  br i1 %9, label %10, label %11

10:                                               ; preds = %2
  br label %36

11:                                               ; preds = %2
  %12 = load ptr, ptr %3, align 8, !tbaa !49
  %13 = getelementptr inbounds nuw %struct.Vec_Int_t_, ptr %12, i32 0, i32 2
  %14 = load ptr, ptr %13, align 8, !tbaa !85
  %15 = icmp ne ptr %14, null
  br i1 %15, label %16, label %24

16:                                               ; preds = %11
  %17 = load ptr, ptr %3, align 8, !tbaa !49
  %18 = getelementptr inbounds nuw %struct.Vec_Int_t_, ptr %17, i32 0, i32 2
  %19 = load ptr, ptr %18, align 8, !tbaa !85
  %20 = load i32, ptr %4, align 4, !tbaa !3
  %21 = sext i32 %20 to i64
  %22 = mul i64 4, %21
  %23 = call ptr @realloc(ptr noundef %19, i64 noundef %22) #13
  br label %29

24:                                               ; preds = %11
  %25 = load i32, ptr %4, align 4, !tbaa !3
  %26 = sext i32 %25 to i64
  %27 = mul i64 4, %26
  %28 = call noalias ptr @malloc(i64 noundef %27) #12
  br label %29

29:                                               ; preds = %24, %16
  %30 = phi ptr [ %23, %16 ], [ %28, %24 ]
  %31 = load ptr, ptr %3, align 8, !tbaa !49
  %32 = getelementptr inbounds nuw %struct.Vec_Int_t_, ptr %31, i32 0, i32 2
  store ptr %30, ptr %32, align 8, !tbaa !85
  %33 = load i32, ptr %4, align 4, !tbaa !3
  %34 = load ptr, ptr %3, align 8, !tbaa !49
  %35 = getelementptr inbounds nuw %struct.Vec_Int_t_, ptr %34, i32 0, i32 0
  store i32 %33, ptr %35, align 8, !tbaa !86
  br label %36

36:                                               ; preds = %29, %10
  ret void
}

; Function Attrs: inlinehint nounwind uwtable
define internal ptr @Vec_PtrEntry(ptr noundef %0, i32 noundef %1) #1 {
  %3 = alloca ptr, align 8
  %4 = alloca i32, align 4
  store ptr %0, ptr %3, align 8, !tbaa !92
  store i32 %1, ptr %4, align 4, !tbaa !3
  %5 = load ptr, ptr %3, align 8, !tbaa !92
  %6 = getelementptr inbounds nuw %struct.Vec_Ptr_t_, ptr %5, i32 0, i32 2
  %7 = load ptr, ptr %6, align 8, !tbaa !105
  %8 = load i32, ptr %4, align 4, !tbaa !3
  %9 = sext i32 %8 to i64
  %10 = getelementptr inbounds ptr, ptr %7, i64 %9
  %11 = load ptr, ptr %10, align 8, !tbaa !104
  ret ptr %11
}

; Function Attrs: inlinehint nounwind uwtable
define internal ptr @Vec_IntArray(ptr noundef %0) #1 {
  %2 = alloca ptr, align 8
  store ptr %0, ptr %2, align 8, !tbaa !49
  %3 = load ptr, ptr %2, align 8, !tbaa !49
  %4 = getelementptr inbounds nuw %struct.Vec_Int_t_, ptr %3, i32 0, i32 2
  %5 = load ptr, ptr %4, align 8, !tbaa !85
  ret ptr %5
}

; Function Attrs: inlinehint nounwind uwtable
define internal void @Vec_IntPush(ptr noundef %0, i32 noundef %1) #1 {
  %3 = alloca ptr, align 8
  %4 = alloca i32, align 4
  store ptr %0, ptr %3, align 8, !tbaa !49
  store i32 %1, ptr %4, align 4, !tbaa !3
  %5 = load ptr, ptr %3, align 8, !tbaa !49
  %6 = getelementptr inbounds nuw %struct.Vec_Int_t_, ptr %5, i32 0, i32 1
  %7 = load i32, ptr %6, align 4, !tbaa !83
  %8 = load ptr, ptr %3, align 8, !tbaa !49
  %9 = getelementptr inbounds nuw %struct.Vec_Int_t_, ptr %8, i32 0, i32 0
  %10 = load i32, ptr %9, align 8, !tbaa !86
  %11 = icmp eq i32 %7, %10
  br i1 %11, label %12, label %26

12:                                               ; preds = %2
  %13 = load ptr, ptr %3, align 8, !tbaa !49
  %14 = getelementptr inbounds nuw %struct.Vec_Int_t_, ptr %13, i32 0, i32 0
  %15 = load i32, ptr %14, align 8, !tbaa !86
  %16 = icmp slt i32 %15, 16
  br i1 %16, label %17, label %19

17:                                               ; preds = %12
  %18 = load ptr, ptr %3, align 8, !tbaa !49
  call void @Vec_IntGrow(ptr noundef %18, i32 noundef 16)
  br label %25

19:                                               ; preds = %12
  %20 = load ptr, ptr %3, align 8, !tbaa !49
  %21 = load ptr, ptr %3, align 8, !tbaa !49
  %22 = getelementptr inbounds nuw %struct.Vec_Int_t_, ptr %21, i32 0, i32 0
  %23 = load i32, ptr %22, align 8, !tbaa !86
  %24 = mul nsw i32 2, %23
  call void @Vec_IntGrow(ptr noundef %20, i32 noundef %24)
  br label %25

25:                                               ; preds = %19, %17
  br label %26

26:                                               ; preds = %25, %2
  %27 = load i32, ptr %4, align 4, !tbaa !3
  %28 = load ptr, ptr %3, align 8, !tbaa !49
  %29 = getelementptr inbounds nuw %struct.Vec_Int_t_, ptr %28, i32 0, i32 2
  %30 = load ptr, ptr %29, align 8, !tbaa !85
  %31 = load ptr, ptr %3, align 8, !tbaa !49
  %32 = getelementptr inbounds nuw %struct.Vec_Int_t_, ptr %31, i32 0, i32 1
  %33 = load i32, ptr %32, align 4, !tbaa !83
  %34 = add nsw i32 %33, 1
  store i32 %34, ptr %32, align 4, !tbaa !83
  %35 = sext i32 %33 to i64
  %36 = getelementptr inbounds i32, ptr %30, i64 %35
  store i32 %27, ptr %36, align 4, !tbaa !3
  ret void
}

; Function Attrs: inlinehint nounwind uwtable
define internal i32 @Abc_LitIsCompl(i32 noundef %0) #1 {
  %2 = alloca i32, align 4
  store i32 %0, ptr %2, align 4, !tbaa !3
  %3 = load i32, ptr %2, align 4, !tbaa !3
  %4 = and i32 %3, 1
  ret i32 %4
}

; Function Attrs: inlinehint nounwind uwtable
define internal i32 @Vec_IntEntry(ptr noundef %0, i32 noundef %1) #1 {
  %3 = alloca ptr, align 8
  %4 = alloca i32, align 4
  store ptr %0, ptr %3, align 8, !tbaa !49
  store i32 %1, ptr %4, align 4, !tbaa !3
  %5 = load ptr, ptr %3, align 8, !tbaa !49
  %6 = getelementptr inbounds nuw %struct.Vec_Int_t_, ptr %5, i32 0, i32 2
  %7 = load ptr, ptr %6, align 8, !tbaa !85
  %8 = load i32, ptr %4, align 4, !tbaa !3
  %9 = sext i32 %8 to i64
  %10 = getelementptr inbounds i32, ptr %7, i64 %9
  %11 = load i32, ptr %10, align 4, !tbaa !3
  ret i32 %11
}

; Function Attrs: inlinehint nounwind uwtable
define internal i32 @Vec_IntSize(ptr noundef %0) #1 {
  %2 = alloca ptr, align 8
  store ptr %0, ptr %2, align 8, !tbaa !49
  %3 = load ptr, ptr %2, align 8, !tbaa !49
  %4 = getelementptr inbounds nuw %struct.Vec_Int_t_, ptr %3, i32 0, i32 1
  %5 = load i32, ptr %4, align 4, !tbaa !83
  ret i32 %5
}

; Function Attrs: inlinehint nounwind uwtable
define internal i32 @sat_solver_final(ptr noundef %0, ptr noundef %1) #1 {
  %3 = alloca ptr, align 8
  %4 = alloca ptr, align 8
  store ptr %0, ptr %3, align 8, !tbaa !55
  store ptr %1, ptr %4, align 8, !tbaa !57
  %5 = load ptr, ptr %3, align 8, !tbaa !55
  %6 = getelementptr inbounds nuw %struct.sat_solver_t, ptr %5, i32 0, i32 37
  %7 = getelementptr inbounds nuw %struct.veci_t, ptr %6, i32 0, i32 2
  %8 = load ptr, ptr %7, align 8, !tbaa !59
  %9 = load ptr, ptr %4, align 8, !tbaa !57
  store ptr %8, ptr %9, align 8, !tbaa !47
  %10 = load ptr, ptr %3, align 8, !tbaa !55
  %11 = getelementptr inbounds nuw %struct.sat_solver_t, ptr %10, i32 0, i32 37
  %12 = getelementptr inbounds nuw %struct.veci_t, ptr %11, i32 0, i32 1
  %13 = load i32, ptr %12, align 4, !tbaa !70
  ret i32 %13
}

; Function Attrs: inlinehint nounwind uwtable
define internal ptr @Pdr_ManSolver(ptr noundef %0, i32 noundef %1) #1 {
  %3 = alloca ptr, align 8
  %4 = alloca i32, align 4
  store ptr %0, ptr %3, align 8, !tbaa !43
  store i32 %1, ptr %4, align 4, !tbaa !3
  %5 = load ptr, ptr %3, align 8, !tbaa !43
  %6 = getelementptr inbounds nuw %struct.Pdr_Man_t_, ptr %5, i32 0, i32 13
  %7 = load ptr, ptr %6, align 8, !tbaa !71
  %8 = load i32, ptr %4, align 4, !tbaa !3
  %9 = call ptr @Vec_PtrEntry(ptr noundef %7, i32 noundef %8)
  ret ptr %9
}

; Function Attrs: nounwind uwtable
define ptr @Pdr_ManReduceClause(ptr noundef %0, i32 noundef %1, ptr noundef %2) #0 {
  %4 = alloca ptr, align 8
  %5 = alloca ptr, align 8
  %6 = alloca i32, align 4
  %7 = alloca ptr, align 8
  %8 = alloca ptr, align 8
  %9 = alloca ptr, align 8
  %10 = alloca i32, align 4
  %11 = alloca i32, align 4
  %12 = alloca i32, align 4
  %13 = alloca ptr, align 8
  %14 = alloca i32, align 4
  store ptr %0, ptr %5, align 8, !tbaa !43
  store i32 %1, ptr %6, align 4, !tbaa !3
  store ptr %2, ptr %7, align 8, !tbaa !45
  call void @llvm.lifetime.start.p0(i64 8, ptr %8) #10
  call void @llvm.lifetime.start.p0(i64 8, ptr %9) #10
  call void @llvm.lifetime.start.p0(i64 4, ptr %10) #10
  call void @llvm.lifetime.start.p0(i64 4, ptr %11) #10
  call void @llvm.lifetime.start.p0(i64 4, ptr %12) #10
  call void @llvm.lifetime.start.p0(i64 8, ptr %13) #10
  %15 = load ptr, ptr %5, align 8, !tbaa !43
  %16 = load i32, ptr %6, align 4, !tbaa !3
  %17 = call ptr @Pdr_ManSolver(ptr noundef %15, i32 noundef %16)
  %18 = call i32 @sat_solver_final(ptr noundef %17, ptr noundef %13)
  store i32 %18, ptr %12, align 4, !tbaa !3
  %19 = load ptr, ptr %5, align 8, !tbaa !43
  %20 = load i32, ptr %6, align 4, !tbaa !3
  %21 = load ptr, ptr %13, align 8, !tbaa !47
  %22 = load i32, ptr %12, align 4, !tbaa !3
  %23 = call ptr @Pdr_ManLitsToCube(ptr noundef %19, i32 noundef %20, ptr noundef %21, i32 noundef %22)
  store ptr %23, ptr %9, align 8, !tbaa !49
  %24 = load ptr, ptr %9, align 8, !tbaa !49
  %25 = call i32 @Vec_IntSize(ptr noundef %24)
  %26 = load ptr, ptr %7, align 8, !tbaa !45
  %27 = getelementptr inbounds nuw %struct.Pdr_Set_t_, ptr %26, i32 0, i32 3
  %28 = load i32, ptr %27, align 8, !tbaa !50
  %29 = icmp eq i32 %25, %28
  br i1 %29, label %30, label %31

30:                                               ; preds = %3
  store ptr null, ptr %4, align 8
  store i32 1, ptr %14, align 4
  br label %94

31:                                               ; preds = %3
  store i32 0, ptr %10, align 4, !tbaa !3
  br label %32

32:                                               ; preds = %49, %31
  %33 = load i32, ptr %10, align 4, !tbaa !3
  %34 = load ptr, ptr %9, align 8, !tbaa !49
  %35 = call i32 @Vec_IntSize(ptr noundef %34)
  %36 = icmp slt i32 %33, %35
  br i1 %36, label %37, label %41

37:                                               ; preds = %32
  %38 = load ptr, ptr %9, align 8, !tbaa !49
  %39 = load i32, ptr %10, align 4, !tbaa !3
  %40 = call i32 @Vec_IntEntry(ptr noundef %38, i32 noundef %39)
  store i32 %40, ptr %11, align 4, !tbaa !3
  br label %41

41:                                               ; preds = %37, %32
  %42 = phi i1 [ false, %32 ], [ true, %37 ]
  br i1 %42, label %43, label %52

43:                                               ; preds = %41
  %44 = load i32, ptr %11, align 4, !tbaa !3
  %45 = call i32 @Abc_LitIsCompl(i32 noundef %44)
  %46 = icmp eq i32 %45, 0
  br i1 %46, label %47, label %48

47:                                               ; preds = %43
  br label %52

48:                                               ; preds = %43
  br label %49

49:                                               ; preds = %48
  %50 = load i32, ptr %10, align 4, !tbaa !3
  %51 = add nsw i32 %50, 1
  store i32 %51, ptr %10, align 4, !tbaa !3
  br label %32, !llvm.loop !52

52:                                               ; preds = %47, %41
  %53 = load i32, ptr %10, align 4, !tbaa !3
  %54 = load ptr, ptr %9, align 8, !tbaa !49
  %55 = call i32 @Vec_IntSize(ptr noundef %54)
  %56 = icmp eq i32 %53, %55
  br i1 %56, label %57, label %86

57:                                               ; preds = %52
  store i32 0, ptr %10, align 4, !tbaa !3
  br label %58

58:                                               ; preds = %82, %57
  %59 = load i32, ptr %10, align 4, !tbaa !3
  %60 = load ptr, ptr %7, align 8, !tbaa !45
  %61 = getelementptr inbounds nuw %struct.Pdr_Set_t_, ptr %60, i32 0, i32 3
  %62 = load i32, ptr %61, align 8, !tbaa !50
  %63 = icmp slt i32 %59, %62
  br i1 %63, label %64, label %85

64:                                               ; preds = %58
  %65 = load ptr, ptr %7, align 8, !tbaa !45
  %66 = getelementptr inbounds nuw %struct.Pdr_Set_t_, ptr %65, i32 0, i32 4
  %67 = load i32, ptr %10, align 4, !tbaa !3
  %68 = sext i32 %67 to i64
  %69 = getelementptr inbounds [0 x i32], ptr %66, i64 0, i64 %68
  %70 = load i32, ptr %69, align 4, !tbaa !3
  %71 = call i32 @Abc_LitIsCompl(i32 noundef %70)
  %72 = icmp eq i32 %71, 0
  br i1 %72, label %73, label %81

73:                                               ; preds = %64
  %74 = load ptr, ptr %9, align 8, !tbaa !49
  %75 = load ptr, ptr %7, align 8, !tbaa !45
  %76 = getelementptr inbounds nuw %struct.Pdr_Set_t_, ptr %75, i32 0, i32 4
  %77 = load i32, ptr %10, align 4, !tbaa !3
  %78 = sext i32 %77 to i64
  %79 = getelementptr inbounds [0 x i32], ptr %76, i64 0, i64 %78
  %80 = load i32, ptr %79, align 4, !tbaa !3
  call void @Vec_IntPush(ptr noundef %74, i32 noundef %80)
  br label %85

81:                                               ; preds = %64
  br label %82

82:                                               ; preds = %81
  %83 = load i32, ptr %10, align 4, !tbaa !3
  %84 = add nsw i32 %83, 1
  store i32 %84, ptr %10, align 4, !tbaa !3
  br label %58, !llvm.loop !54

85:                                               ; preds = %73, %58
  br label %86

86:                                               ; preds = %85, %52
  %87 = load ptr, ptr %7, align 8, !tbaa !45
  %88 = load ptr, ptr %9, align 8, !tbaa !49
  %89 = call ptr @Vec_IntArray(ptr noundef %88)
  %90 = load ptr, ptr %9, align 8, !tbaa !49
  %91 = call i32 @Vec_IntSize(ptr noundef %90)
  %92 = call ptr @Pdr_SetCreateSubset(ptr noundef %87, ptr noundef %89, i32 noundef %91)
  store ptr %92, ptr %8, align 8, !tbaa !45
  %93 = load ptr, ptr %8, align 8, !tbaa !45
  store ptr %93, ptr %4, align 8
  store i32 1, ptr %14, align 4
  br label %94

94:                                               ; preds = %86, %30
  call void @llvm.lifetime.end.p0(i64 8, ptr %13) #10
  call void @llvm.lifetime.end.p0(i64 4, ptr %12) #10
  call void @llvm.lifetime.end.p0(i64 4, ptr %11) #10
  call void @llvm.lifetime.end.p0(i64 4, ptr %10) #10
  call void @llvm.lifetime.end.p0(i64 8, ptr %9) #10
  call void @llvm.lifetime.end.p0(i64 8, ptr %8) #10
  %95 = load ptr, ptr %4, align 8
  ret ptr %95
}