; Function Attrs: nounwind uwtable
define ptr @Pdr_ManReduceClause(ptr noundef %0, i32 noundef %1, ptr noundef %2) local_unnamed_addr #3 {
  %4 = getelementptr i8, ptr %0, i64 104
  %.val = load ptr, ptr %4, align 8, !tbaa !20
  %5 = getelementptr i8, ptr %.val, i64 8
  %.val.val = load ptr, ptr %5, align 8, !tbaa !35
  %6 = sext i32 %1 to i64
  %7 = getelementptr inbounds ptr, ptr %.val.val, i64 %6
  %8 = load ptr, ptr %7, align 8, !tbaa !36
  %9 = getelementptr i8, ptr %8, i64 340
  %.val28 = load i32, ptr %9, align 4, !tbaa !37
  %10 = getelementptr i8, ptr %8, i64 344
  %.val29 = load ptr, ptr %10, align 8, !tbaa !48
  %11 = tail call ptr @Pdr_ManLitsToCube(ptr noundef %0, i32 noundef %1, ptr noundef %.val29, i32 noundef %.val28) #19
  %12 = getelementptr i8, ptr %11, i64 4
  %.val30 = load i32, ptr %12, align 4, !tbaa !49
  %13 = getelementptr inbounds nuw i8, ptr %2, i64 16
  %14 = load i32, ptr %13, align 8, !tbaa !51
  %15 = icmp eq i32 %.val30, %14
  br i1 %15, label %66, label %.preheader36

.preheader36:                                     ; preds = %3
  %16 = icmp sgt i32 %.val30, 0
  br i1 %16, label %.lr.ph, label %.critedge

.lr.ph:                                           ; preds = %.preheader36
  %17 = getelementptr i8, ptr %11, i64 8
  %.val34 = load ptr, ptr %17, align 8, !tbaa !53
  %wide.trip.count = zext nneg i32 %.val30 to i64
  br label %18

18:                                               ; preds = %.lr.ph, %23
  %indvars.iv = phi i64 [ 0, %.lr.ph ], [ %indvars.iv.next, %23 ]
  %19 = getelementptr inbounds nuw i32, ptr %.val34, i64 %indvars.iv
  %20 = load i32, ptr %19, align 4, !tbaa !54
  %21 = and i32 %20, 1
  %22 = icmp eq i32 %21, 0
  br i1 %22, label %.critedge.loopexit.split.loop.exit51, label %23

23:                                               ; preds = %18
  %indvars.iv.next = add nuw nsw i64 %indvars.iv, 1
  %exitcond.not = icmp eq i64 %indvars.iv.next, %wide.trip.count
  br i1 %exitcond.not, label %.critedge, label %18, !llvm.loop !55

.critedge.loopexit.split.loop.exit51:             ; preds = %18
  %24 = trunc nuw nsw i64 %indvars.iv to i32
  br label %.critedge

.critedge:                                        ; preds = %23, %.critedge.loopexit.split.loop.exit51, %.preheader36
  %.027.lcssa = phi i32 [ 0, %.preheader36 ], [ %24, %.critedge.loopexit.split.loop.exit51 ], [ %.val30, %23 ]
  %25 = icmp eq i32 %.027.lcssa, %.val30
  %26 = icmp sgt i32 %14, 0
  %or.cond = and i1 %25, %26
  br i1 %or.cond, label %.lr.ph41, label %.loopexit

.lr.ph41:                                         ; preds = %.critedge
  %27 = getelementptr inbounds nuw i8, ptr %2, i64 20
  %wide.trip.count47 = zext nneg i32 %14 to i64
  br label %29

28:                                               ; preds = %29
  %indvars.iv.next45 = add nuw nsw i64 %indvars.iv44, 1
  %exitcond48.not = icmp eq i64 %indvars.iv.next45, %wide.trip.count47
  br i1 %exitcond48.not, label %.loopexit, label %29, !llvm.loop !57

29:                                               ; preds = %.lr.ph41, %28
  %indvars.iv44 = phi i64 [ 0, %.lr.ph41 ], [ %indvars.iv.next45, %28 ]
  %30 = getelementptr inbounds nuw [0 x i32], ptr %27, i64 0, i64 %indvars.iv44
  %31 = load i32, ptr %30, align 4, !tbaa !54
  %32 = and i32 %31, 1
  %33 = icmp eq i32 %32, 0
  br i1 %33, label %34, label %28

34:                                               ; preds = %29
  %35 = load i32, ptr %11, align 8, !tbaa !58
  %36 = icmp eq i32 %.val30, %35
  br i1 %36, label %37, label %.Vec_IntGrow.exit10_crit_edge.i

.Vec_IntGrow.exit10_crit_edge.i:                  ; preds = %34
  %.phi.trans.insert.i = getelementptr inbounds nuw i8, ptr %11, i64 8
  %.pre.i = load ptr, ptr %.phi.trans.insert.i, align 8, !tbaa !53
  br label %Vec_IntPush.exit

37:                                               ; preds = %34
  %38 = icmp slt i32 %.val30, 16
  br i1 %38, label %39, label %47

39:                                               ; preds = %37
  %40 = getelementptr inbounds nuw i8, ptr %11, i64 8
  %41 = load ptr, ptr %40, align 8, !tbaa !53
  %.not9.i.i = icmp eq ptr %41, null
  br i1 %.not9.i.i, label %44, label %42

42:                                               ; preds = %39
  %43 = tail call dereferenceable_or_null(64) ptr @realloc(ptr noundef nonnull %41, i64 noundef 64) #20
  br label %Vec_IntGrow.exit.i

44:                                               ; preds = %39
  %45 = tail call noalias dereferenceable_or_null(64) ptr @malloc(i64 noundef 64) #21
  br label %Vec_IntGrow.exit.i

Vec_IntGrow.exit.i:                               ; preds = %44, %42
  %46 = phi ptr [ %43, %42 ], [ %45, %44 ]
  store ptr %46, ptr %40, align 8, !tbaa !53
  store i32 16, ptr %11, align 8, !tbaa !58
  br label %Vec_IntPush.exit

47:                                               ; preds = %37
  %48 = shl nuw nsw i32 %.val30, 1
  %49 = getelementptr inbounds nuw i8, ptr %11, i64 8
  %50 = load ptr, ptr %49, align 8, !tbaa !53
  %.not9.i9.i = icmp eq ptr %50, null
  %51 = zext nneg i32 %48 to i64
  %52 = shl nuw nsw i64 %51, 2
  br i1 %.not9.i9.i, label %55, label %53

53:                                               ; preds = %47
  %54 = tail call ptr @realloc(ptr noundef nonnull %50, i64 noundef %52) #20
  br label %57

55:                                               ; preds = %47
  %56 = tail call noalias ptr @malloc(i64 noundef %52) #21
  br label %57

57:                                               ; preds = %55, %53
  %58 = phi ptr [ %54, %53 ], [ %56, %55 ]
  store ptr %58, ptr %49, align 8, !tbaa !53
  store i32 %48, ptr %11, align 8, !tbaa !58
  br label %Vec_IntPush.exit

Vec_IntPush.exit:                                 ; preds = %.Vec_IntGrow.exit10_crit_edge.i, %Vec_IntGrow.exit.i, %57
  %59 = phi ptr [ %.pre.i, %.Vec_IntGrow.exit10_crit_edge.i ], [ %58, %57 ], [ %46, %Vec_IntGrow.exit.i ]
  %60 = load i32, ptr %12, align 4, !tbaa !49
  %61 = add nsw i32 %60, 1
  store i32 %61, ptr %12, align 4, !tbaa !49
  %62 = sext i32 %60 to i64
  %63 = getelementptr inbounds i32, ptr %59, i64 %62
  store i32 %31, ptr %63, align 4, !tbaa !54
  %.val33.pre = load i32, ptr %12, align 4, !tbaa !49
  br label %.loopexit

.loopexit:                                        ; preds = %28, %Vec_IntPush.exit, %.critedge
  %.val33 = phi i32 [ %.val33.pre, %Vec_IntPush.exit ], [ %.val30, %.critedge ], [ %.val30, %28 ]
  %64 = getelementptr i8, ptr %11, i64 8
  %.val35 = load ptr, ptr %64, align 8, !tbaa !53
  %65 = tail call ptr @Pdr_SetCreateSubset(ptr noundef %2, ptr noundef %.val35, i32 noundef %.val33) #19
  br label %66

66:                                               ; preds = %3, %.loopexit
  %.0 = phi ptr [ %65, %.loopexit ], [ null, %3 ]
  ret ptr %.0
}